target datalayout = "e-m:e-p270:32:32-p271:32:32-p272:64:64-i64:64-i128:128-f80:128-n8:16:32:64-S128"
target triple = "x86_64-pc-linux-gnu"

%"class.llvm::Value" = type { i8, i8, i16, i32, ptr, ptr }
%"struct.(anonymous namespace)::CastedValue" = type <{ ptr, i32, i32, i32, i8, [3 x i8] }>

; Function Attrs: mustprogress nounwind uwtable
define linkonce_odr hidden noundef ptr @_ZNK4llvm5Value7getTypeEv(ptr noundef nonnull align 8 dereferenceable(24) %0) #1 comdat align 2 {
  %2 = alloca ptr, align 8
  store ptr %0, ptr %2, align 8
  %3 = load ptr, ptr %2, align 8
  %4 = getelementptr inbounds nuw %"class.llvm::Value", ptr %3, i32 0, i32 4
  %5 = load ptr, ptr %4, align 8
  ret ptr %5
}

; Function Attrs: mustprogress nounwind uwtable
define internal noundef zeroext i1 @_ZNK12_GLOBAL__N_111CastedValue14hasSameCastsAsERKS0_(ptr noundef nonnull align 8 dereferenceable(21) %0, ptr noundef nonnull align 8 dereferenceable(21) %1) #1 align 2 {
  %3 = alloca i1, align 1
  %4 = alloca ptr, align 8
  %5 = alloca ptr, align 8
  store ptr %0, ptr %4, align 8
  store ptr %1, ptr %5, align 8
  %6 = load ptr, ptr %4, align 8
  %7 = getelementptr inbounds nuw %"struct.(anonymous namespace)::CastedValue", ptr %6, i32 0, i32 0
  %8 = load ptr, ptr %7, align 8
  %9 = call noundef ptr @_ZNK4llvm5Value7getTypeEv(ptr noundef nonnull align 8 dereferenceable(24) %8)
  %10 = load ptr, ptr %5, align 8
  %11 = getelementptr inbounds nuw %"struct.(anonymous namespace)::CastedValue", ptr %10, i32 0, i32 0
  %12 = load ptr, ptr %11, align 8
  %13 = call noundef ptr @_ZNK4llvm5Value7getTypeEv(ptr noundef nonnull align 8 dereferenceable(24) %12)
  %14 = icmp ne ptr %9, %13
  br i1 %14, label %15, label %16

15:                                               ; preds = %2
  store i1 false, ptr %3, align 1
  br label %71

16:                                               ; preds = %2
  %17 = getelementptr inbounds nuw %"struct.(anonymous namespace)::CastedValue", ptr %6, i32 0, i32 1
  %18 = load i32, ptr %17, align 8
  %19 = load ptr, ptr %5, align 8
  %20 = getelementptr inbounds nuw %"struct.(anonymous namespace)::CastedValue", ptr %19, i32 0, i32 1
  %21 = load i32, ptr %20, align 8
  %22 = icmp eq i32 %18, %21
  br i1 %22, label %23, label %38

23:                                               ; preds = %16
  %24 = getelementptr inbounds nuw %"struct.(anonymous namespace)::CastedValue", ptr %6, i32 0, i32 2
  %25 = load i32, ptr %24, align 4
  %26 = load ptr, ptr %5, align 8
  %27 = getelementptr inbounds nuw %"struct.(anonymous namespace)::CastedValue", ptr %26, i32 0, i32 2
  %28 = load i32, ptr %27, align 4
  %29 = icmp eq i32 %25, %28
  br i1 %29, label %30, label %38

30:                                               ; preds = %23
  %31 = getelementptr inbounds nuw %"struct.(anonymous namespace)::CastedValue", ptr %6, i32 0, i32 3
  %32 = load i32, ptr %31, align 8
  %33 = load ptr, ptr %5, align 8
  %34 = getelementptr inbounds nuw %"struct.(anonymous namespace)::CastedValue", ptr %33, i32 0, i32 3
  %35 = load i32, ptr %34, align 8
  %36 = icmp eq i32 %32, %35
  br i1 %36, label %37, label %38

37:                                               ; preds = %30
  store i1 true, ptr %3, align 1
  br label %71

38:                                               ; preds = %30, %23, %16
  %39 = getelementptr inbounds nuw %"struct.(anonymous namespace)::CastedValue", ptr %6, i32 0, i32 4
  %40 = load i8, ptr %39, align 4
  %41 = trunc i8 %40 to i1
  br i1 %41, label %47, label %42

42:                                               ; preds = %38
  %43 = load ptr, ptr %5, align 8
  %44 = getelementptr inbounds nuw %"struct.(anonymous namespace)::CastedValue", ptr %43, i32 0, i32 4
  %45 = load i8, ptr %44, align 4
  %46 = trunc i8 %45 to i1
  br i1 %46, label %47, label %70

47:                                               ; preds = %42, %38
  %48 = getelementptr inbounds nuw %"struct.(anonymous namespace)::CastedValue", ptr %6, i32 0, i32 1
  %49 = load i32, ptr %48, align 8
  %50 = getelementptr inbounds nuw %"struct.(anonymous namespace)::CastedValue", ptr %6, i32 0, i32 2
  %51 = load i32, ptr %50, align 4
  %52 = add i32 %49, %51
  %53 = load ptr, ptr %5, align 8
  %54 = getelementptr inbounds nuw %"struct.(anonymous namespace)::CastedValue", ptr %53, i32 0, i32 1
  %55 = load i32, ptr %54, align 8
  %56 = load ptr, ptr %5, align 8
  %57 = getelementptr inbounds nuw %"struct.(anonymous namespace)::CastedValue", ptr %56, i32 0, i32 2
  %58 = load i32, ptr %57, align 4
  %59 = add i32 %55, %58
  %60 = icmp eq i32 %52, %59
  br i1 %60, label %61, label %68

61:                                               ; preds = %47
  %62 = getelementptr inbounds nuw %"struct.(anonymous namespace)::CastedValue", ptr %6, i32 0, i32 3
  %63 = load i32, ptr %62, align 8
  %64 = load ptr, ptr %5, align 8
  %65 = getelementptr inbounds nuw %"struct.(anonymous namespace)::CastedValue", ptr %64, i32 0, i32 3
  %66 = load i32, ptr %65, align 8
  %67 = icmp eq i32 %63, %66
  br label %68

68:                                               ; preds = %61, %47
  %69 = phi i1 [ false, %47 ], [ %67, %61 ]
  store i1 %69, ptr %3, align 1
  br label %71

70:                                               ; preds = %42
  store i1 false, ptr %3, align 1
  br label %71

71:                                               ; preds = %70, %68, %37, %15
  %72 = load i1, ptr %3, align 1
  ret i1 %72
}