; Function Attrs: mustprogress nofree norecurse nosync nounwind willreturn memory(read, inaccessiblemem: none) uwtable
define internal fastcc noundef zeroext i1 @_ZNK12_GLOBAL__N_111CastedValue14hasSameCastsAsERKS0_(ptr nocapture noundef nonnull readonly align 8 dereferenceable(21) %0, ptr nocapture noundef nonnull readonly align 8 dereferenceable(21) %1) unnamed_addr #8 align 2 {
  %3 = load ptr, ptr %0, align 8
  %4 = getelementptr inbounds nuw i8, ptr %3, i64 8
  %5 = load ptr, ptr %4, align 8
  %6 = load ptr, ptr %1, align 8
  %7 = getelementptr inbounds nuw i8, ptr %6, i64 8
  %8 = load ptr, ptr %7, align 8
  %.not = icmp eq ptr %5, %8
  br i1 %.not, label %9, label %49

9:                                                ; preds = %2
  %10 = getelementptr inbounds nuw i8, ptr %0, i64 8
  %11 = load i32, ptr %10, align 8
  %12 = getelementptr inbounds nuw i8, ptr %1, i64 8
  %13 = load i32, ptr %12, align 8
  %14 = icmp eq i32 %11, %13
  br i1 %14, label %15, label %27

15:                                               ; preds = %9
  %16 = getelementptr inbounds nuw i8, ptr %0, i64 12
  %17 = load i32, ptr %16, align 4
  %18 = getelementptr inbounds nuw i8, ptr %1, i64 12
  %19 = load i32, ptr %18, align 4
  %20 = icmp eq i32 %17, %19
  br i1 %20, label %21, label %27

21:                                               ; preds = %15
  %22 = getelementptr inbounds nuw i8, ptr %0, i64 16
  %23 = load i32, ptr %22, align 8
  %24 = getelementptr inbounds nuw i8, ptr %1, i64 16
  %25 = load i32, ptr %24, align 8
  %26 = icmp eq i32 %23, %25
  br i1 %26, label %49, label %27

27:                                               ; preds = %21, %15, %9
  %28 = getelementptr inbounds nuw i8, ptr %0, i64 20
  %29 = load i8, ptr %28, align 4
  %30 = trunc i8 %29 to i1
  br i1 %30, label %35, label %31

31:                                               ; preds = %27
  %32 = getelementptr inbounds nuw i8, ptr %1, i64 20
  %33 = load i8, ptr %32, align 4
  %34 = trunc i8 %33 to i1
  br i1 %34, label %35, label %49

35:                                               ; preds = %31, %27
  %36 = getelementptr inbounds nuw i8, ptr %0, i64 12
  %37 = load i32, ptr %36, align 4
  %38 = add i32 %37, %11
  %39 = getelementptr inbounds nuw i8, ptr %1, i64 12
  %40 = load i32, ptr %39, align 4
  %41 = add i32 %40, %13
  %42 = icmp eq i32 %38, %41
  %43 = getelementptr inbounds nuw i8, ptr %0, i64 16
  %44 = load i32, ptr %43, align 8
  %45 = getelementptr inbounds nuw i8, ptr %1, i64 16
  %46 = load i32, ptr %45, align 8
  %47 = icmp eq i32 %44, %46
  %48 = select i1 %42, i1 %47, i1 false
  br label %49

49:                                               ; preds = %31, %21, %2, %35
  %.0 = phi i1 [ %48, %35 ], [ false, %2 ], [ true, %21 ], [ false, %31 ]
  ret i1 %.0
}